target datalayout = "e-m:e-p270:32:32-p271:32:32-p272:64:64-i64:64-i128:128-f80:128-n8:16:32:64-S128"
target triple = "x86_64-pc-linux-gnu"

%struct.rb_data_type_struct = type { ptr, %struct.anon, ptr, ptr, i64 }
%struct.anon = type { ptr, ptr, ptr, ptr, [1 x ptr] }
%struct.JSON_Generator_StateStruct = type { i64, i64, i64, i64, i64, i64, i64, i64, i64, i8, i8, i8, i8 }
%struct.RTypedData = type { %struct.RBasic, ptr, i64, ptr }
%struct.RBasic = type { i64, i64 }
%struct.RString = type { %struct.RBasic, i64, %union.anon }
%union.anon = type { %struct.anon.0 }
%struct.anon.0 = type { ptr, %union.anon.1 }
%union.anon.1 = type { i64 }

@JSON_Generator_State_type = internal constant %struct.rb_data_type_struct { ptr @.str.74, %struct.anon { ptr @State_mark, ptr @State_free, ptr @State_memsize, ptr @State_compact, [1 x ptr] zeroinitializer }, ptr null, ptr null, i64 289 }, align 8
@.str.80 = private unnamed_addr constant [43 x i8] c"../../../../ext/json/generator/generator.c\00", align 1

; Function Attrs: inlinehint nounwind sspstrong willreturn memory(none) uwtable
define internal zeroext i1 @RB_FLONUM_P(i64 noundef %0) #6 {
  %2 = alloca i64, align 8
  store i64 %0, ptr %2, align 8, !tbaa !6
  %3 = load i64, ptr %2, align 8, !tbaa !6
  %4 = and i64 %3, 3
  %5 = icmp eq i64 %4, 2
  ret i1 %5
}

; Function Attrs: inlinehint nounwind sspstrong willreturn memory(read) uwtable
define internal zeroext i1 @RB_DYNAMIC_SYM_P(i64 noundef %0) #9 {
  %2 = alloca i1, align 1
  %3 = alloca i64, align 8
  store i64 %0, ptr %3, align 8, !tbaa !6
  %4 = load i64, ptr %3, align 8, !tbaa !6
  %5 = call zeroext i1 @RB_SPECIAL_CONST_P(i64 noundef %4) #28
  br i1 %5, label %6, label %7

6:                                                ; preds = %1
  store i1 false, ptr %2, align 1
  br label %11

7:                                                ; preds = %1
  %8 = load i64, ptr %3, align 8, !tbaa !6
  %9 = call i32 @RB_BUILTIN_TYPE(i64 noundef %8) #32
  %10 = icmp eq i32 %9, 20
  store i1 %10, ptr %2, align 1
  br label %11

11:                                               ; preds = %7, %6
  %12 = load i1, ptr %2, align 1
  ret i1 %12
}

; Function Attrs: inlinehint nounwind sspstrong willreturn memory(none) uwtable
define internal zeroext i1 @RB_STATIC_SYM_P(i64 noundef %0) #6 {
  %2 = alloca i64, align 8
  %3 = alloca i64, align 8
  store i64 %0, ptr %2, align 8, !tbaa !6
  call void @llvm.lifetime.start.p0(i64 8, ptr %3) #27
  store i64 255, ptr %3, align 8, !tbaa !6
  %4 = load i64, ptr %2, align 8, !tbaa !6
  %5 = and i64 %4, 255
  %6 = icmp eq i64 %5, 12
  call void @llvm.lifetime.end.p0(i64 8, ptr %3) #27
  ret i1 %6
}

; Function Attrs: inlinehint nounwind sspstrong willreturn memory(none) uwtable
define internal zeroext i1 @RB_IMMEDIATE_P(i64 noundef %0) #6 {
  %2 = alloca i64, align 8
  store i64 %0, ptr %2, align 8, !tbaa !6
  %3 = load i64, ptr %2, align 8, !tbaa !6
  %4 = and i64 %3, 7
  %5 = icmp ne i64 %4, 0
  ret i1 %5
}

; Function Attrs: inlinehint nounwind sspstrong willreturn memory(read) uwtable
define internal i32 @rb_type(i64 noundef %0) #9 {
  %2 = alloca i32, align 4
  %3 = alloca i64, align 8
  store i64 %0, ptr %3, align 8, !tbaa !6
  %4 = load i64, ptr %3, align 8, !tbaa !6
  %5 = call zeroext i1 @RB_SPECIAL_CONST_P(i64 noundef %4) #28
  br i1 %5, label %9, label %6

6:                                                ; preds = %1
  %7 = load i64, ptr %3, align 8, !tbaa !6
  %8 = call i32 @RB_BUILTIN_TYPE(i64 noundef %7) #32
  store i32 %8, ptr %2, align 4
  br label %36

9:                                                ; preds = %1
  %10 = load i64, ptr %3, align 8, !tbaa !6
  %11 = icmp eq i64 %10, 0
  br i1 %11, label %12, label %13

12:                                               ; preds = %9
  store i32 19, ptr %2, align 4
  br label %36

13:                                               ; preds = %9
  %14 = load i64, ptr %3, align 8, !tbaa !6
  %15 = icmp eq i64 %14, 4
  br i1 %15, label %16, label %17

16:                                               ; preds = %13
  store i32 17, ptr %2, align 4
  br label %36

17:                                               ; preds = %13
  %18 = load i64, ptr %3, align 8, !tbaa !6
  %19 = icmp eq i64 %18, 20
  br i1 %19, label %20, label %21

20:                                               ; preds = %17
  store i32 18, ptr %2, align 4
  br label %36

21:                                               ; preds = %17
  %22 = load i64, ptr %3, align 8, !tbaa !6
  %23 = icmp eq i64 %22, 36
  br i1 %23, label %24, label %25

24:                                               ; preds = %21
  store i32 22, ptr %2, align 4
  br label %36

25:                                               ; preds = %21
  %26 = load i64, ptr %3, align 8, !tbaa !6
  %27 = call zeroext i1 @RB_FIXNUM_P(i64 noundef %26) #28
  br i1 %27, label %28, label %29

28:                                               ; preds = %25
  store i32 21, ptr %2, align 4
  br label %36

29:                                               ; preds = %25
  %30 = load i64, ptr %3, align 8, !tbaa !6
  %31 = call zeroext i1 @RB_STATIC_SYM_P(i64 noundef %30) #28
  br i1 %31, label %32, label %33

32:                                               ; preds = %29
  store i32 20, ptr %2, align 4
  br label %36

33:                                               ; preds = %29
  %34 = load i64, ptr %3, align 8, !tbaa !6
  %35 = call zeroext i1 @RB_FLONUM_P(i64 noundef %34) #28
  call void @llvm.assume(i1 %35)
  store i32 4, ptr %2, align 4
  br label %36

36:                                               ; preds = %33, %32, %28, %24, %20, %16, %12, %6
  %37 = load i32, ptr %2, align 4
  ret i32 %37
}

; Function Attrs: inlinehint nounwind sspstrong willreturn memory(read) uwtable
define internal i32 @RB_BUILTIN_TYPE(i64 noundef %0) #9 {
  %2 = alloca i64, align 8
  %3 = alloca i64, align 8
  store i64 %0, ptr %2, align 8, !tbaa !6
  call void @llvm.lifetime.start.p0(i64 8, ptr %3) #27
  %4 = load i64, ptr %2, align 8, !tbaa !6
  %5 = inttoptr i64 %4 to ptr
  %6 = getelementptr inbounds nuw %struct.RBasic, ptr %5, i32 0, i32 0
  %7 = load i64, ptr %6, align 8, !tbaa !50
  %8 = and i64 %7, 31
  store i64 %8, ptr %3, align 8, !tbaa !6
  %9 = load i64, ptr %3, align 8, !tbaa !6
  %10 = trunc i64 %9 to i32
  call void @llvm.lifetime.end.p0(i64 8, ptr %3) #27
  ret i32 %10
}

; Function Attrs: inlinehint nounwind sspstrong willreturn memory(read) uwtable
define internal zeroext i1 @RB_FLOAT_TYPE_P(i64 noundef %0) #9 {
  %2 = alloca i1, align 1
  %3 = alloca i64, align 8
  store i64 %0, ptr %3, align 8, !tbaa !6
  %4 = load i64, ptr %3, align 8, !tbaa !6
  %5 = call zeroext i1 @RB_FLONUM_P(i64 noundef %4) #28
  br i1 %5, label %6, label %7

6:                                                ; preds = %1
  store i1 true, ptr %2, align 1
  br label %15

7:                                                ; preds = %1
  %8 = load i64, ptr %3, align 8, !tbaa !6
  %9 = call zeroext i1 @RB_SPECIAL_CONST_P(i64 noundef %8) #28
  br i1 %9, label %10, label %11

10:                                               ; preds = %7
  store i1 false, ptr %2, align 1
  br label %15

11:                                               ; preds = %7
  %12 = load i64, ptr %3, align 8, !tbaa !6
  %13 = call i32 @RB_BUILTIN_TYPE(i64 noundef %12) #32
  %14 = icmp eq i32 %13, 4
  store i1 %14, ptr %2, align 1
  br label %15

15:                                               ; preds = %11, %10, %6
  %16 = load i1, ptr %2, align 1
  ret i1 %16
}

; Function Attrs: inlinehint nounwind sspstrong willreturn memory(read) uwtable
define internal zeroext i1 @RB_SYMBOL_P(i64 noundef %0) #9 {
  %2 = alloca i64, align 8
  store i64 %0, ptr %2, align 8, !tbaa !6
  %3 = load i64, ptr %2, align 8, !tbaa !6
  %4 = call zeroext i1 @RB_STATIC_SYM_P(i64 noundef %3) #28
  br i1 %4, label %8, label %5

5:                                                ; preds = %1
  %6 = load i64, ptr %2, align 8, !tbaa !6
  %7 = call zeroext i1 @RB_DYNAMIC_SYM_P(i64 noundef %6) #32
  br label %8

8:                                                ; preds = %5, %1
  %9 = phi i1 [ true, %1 ], [ %7, %5 ]
  ret i1 %9
}

; Function Attrs: inlinehint nounwind sspstrong willreturn memory(none) uwtable
define internal zeroext i1 @RB_FIXNUM_P(i64 noundef %0) #6 {
  %2 = alloca i64, align 8
  store i64 %0, ptr %2, align 8, !tbaa !6
  %3 = load i64, ptr %2, align 8, !tbaa !6
  %4 = and i64 %3, 1
  %5 = icmp ne i64 %4, 0
  ret i1 %5
}

; Function Attrs: inlinehint nounwind sspstrong willreturn memory(none) uwtable
define internal zeroext i1 @RB_SPECIAL_CONST_P(i64 noundef %0) #6 {
  %2 = alloca i64, align 8
  store i64 %0, ptr %2, align 8, !tbaa !6
  %3 = load i64, ptr %2, align 8, !tbaa !6
  %4 = icmp eq i64 %3, 0
  br i1 %4, label %8, label %5

5:                                                ; preds = %1
  %6 = load i64, ptr %2, align 8, !tbaa !6
  %7 = call zeroext i1 @RB_IMMEDIATE_P(i64 noundef %6) #28
  br label %8

8:                                                ; preds = %5, %1
  %9 = phi i1 [ true, %1 ], [ %7, %5 ]
  ret i1 %9
}

; Function Attrs: inlinehint nounwind sspstrong willreturn memory(read) uwtable
define internal zeroext i1 @rbimpl_rtypeddata_p(i64 noundef %0) #9 {
  %2 = alloca i64, align 8
  %3 = alloca i64, align 8
  store i64 %0, ptr %2, align 8, !tbaa !6
  call void @llvm.lifetime.start.p0(i64 8, ptr %3) #27
  %4 = load i64, ptr %2, align 8, !tbaa !6
  %5 = inttoptr i64 %4 to ptr
  %6 = getelementptr inbounds nuw %struct.RTypedData, ptr %5, i32 0, i32 2
  %7 = load i64, ptr %6, align 8, !tbaa !49
  store i64 %7, ptr %3, align 8, !tbaa !6
  %8 = load i64, ptr %3, align 8, !tbaa !6
  %9 = icmp ne i64 %8, 0
  br i1 %9, label %10, label %13

10:                                               ; preds = %1
  %11 = load i64, ptr %3, align 8, !tbaa !6
  %12 = icmp ule i64 %11, 3
  br label %13

13:                                               ; preds = %10, %1
  %14 = phi i1 [ false, %1 ], [ %12, %10 ]
  call void @llvm.lifetime.end.p0(i64 8, ptr %3) #27
  ret i1 %14
}

; Function Attrs: inlinehint nounwind sspstrong willreturn memory(read) uwtable
define internal zeroext i1 @RB_TYPE_P(i64 noundef %0, i32 noundef %1) #9 {
  %3 = alloca i1, align 1
  %4 = alloca i64, align 8
  %5 = alloca i32, align 4
  store i64 %0, ptr %4, align 8, !tbaa !6
  store i32 %1, ptr %5, align 4, !tbaa !10
  %6 = load i32, ptr %5, align 4, !tbaa !10
  %7 = call i1 @llvm.is.constant.i32(i32 %6)
  br i1 %7, label %8, label %12

8:                                                ; preds = %2
  %9 = load i64, ptr %4, align 8, !tbaa !6
  %10 = load i32, ptr %5, align 4, !tbaa !10
  %11 = call zeroext i1 @rbimpl_RB_TYPE_P_fastpath(i64 noundef %9, i32 noundef %10) #32
  store i1 %11, ptr %3, align 1
  br label %17

12:                                               ; preds = %2
  %13 = load i32, ptr %5, align 4, !tbaa !10
  %14 = load i64, ptr %4, align 8, !tbaa !6
  %15 = call i32 @rb_type(i64 noundef %14) #32
  %16 = icmp eq i32 %13, %15
  store i1 %16, ptr %3, align 1
  br label %17

17:                                               ; preds = %12, %8
  %18 = load i1, ptr %3, align 1
  ret i1 %18
}

; Function Attrs: alwaysinline nounwind sspstrong willreturn memory(read) uwtable
define internal zeroext i1 @rbimpl_RB_TYPE_P_fastpath(i64 noundef %0, i32 noundef %1) #8 {
  %3 = alloca i1, align 1
  %4 = alloca i64, align 8
  %5 = alloca i32, align 4
  store i64 %0, ptr %4, align 8, !tbaa !6
  store i32 %1, ptr %5, align 4, !tbaa !10
  %6 = load i32, ptr %5, align 4, !tbaa !10
  %7 = icmp eq i32 %6, 18
  br i1 %7, label %8, label %11

8:                                                ; preds = %2
  %9 = load i64, ptr %4, align 8, !tbaa !6
  %10 = icmp eq i64 %9, 20
  store i1 %10, ptr %3, align 1
  br label %58

11:                                               ; preds = %2
  %12 = load i32, ptr %5, align 4, !tbaa !10
  %13 = icmp eq i32 %12, 19
  br i1 %13, label %14, label %17

14:                                               ; preds = %11
  %15 = load i64, ptr %4, align 8, !tbaa !6
  %16 = icmp eq i64 %15, 0
  store i1 %16, ptr %3, align 1
  br label %58

17:                                               ; preds = %11
  %18 = load i32, ptr %5, align 4, !tbaa !10
  %19 = icmp eq i32 %18, 17
  br i1 %19, label %20, label %23

20:                                               ; preds = %17
  %21 = load i64, ptr %4, align 8, !tbaa !6
  %22 = icmp eq i64 %21, 4
  store i1 %22, ptr %3, align 1
  br label %58

23:                                               ; preds = %17
  %24 = load i32, ptr %5, align 4, !tbaa !10
  %25 = icmp eq i32 %24, 22
  br i1 %25, label %26, label %29

26:                                               ; preds = %23
  %27 = load i64, ptr %4, align 8, !tbaa !6
  %28 = icmp eq i64 %27, 36
  store i1 %28, ptr %3, align 1
  br label %58

29:                                               ; preds = %23
  %30 = load i32, ptr %5, align 4, !tbaa !10
  %31 = icmp eq i32 %30, 21
  br i1 %31, label %32, label %35

32:                                               ; preds = %29
  %33 = load i64, ptr %4, align 8, !tbaa !6
  %34 = call zeroext i1 @RB_FIXNUM_P(i64 noundef %33) #28
  store i1 %34, ptr %3, align 1
  br label %58

35:                                               ; preds = %29
  %36 = load i32, ptr %5, align 4, !tbaa !10
  %37 = icmp eq i32 %36, 20
  br i1 %37, label %38, label %41

38:                                               ; preds = %35
  %39 = load i64, ptr %4, align 8, !tbaa !6
  %40 = call zeroext i1 @RB_SYMBOL_P(i64 noundef %39) #32
  store i1 %40, ptr %3, align 1
  br label %58

41:                                               ; preds = %35
  %42 = load i32, ptr %5, align 4, !tbaa !10
  %43 = icmp eq i32 %42, 4
  br i1 %43, label %44, label %47

44:                                               ; preds = %41
  %45 = load i64, ptr %4, align 8, !tbaa !6
  %46 = call zeroext i1 @RB_FLOAT_TYPE_P(i64 noundef %45) #32
  store i1 %46, ptr %3, align 1
  br label %58

47:                                               ; preds = %41
  %48 = load i64, ptr %4, align 8, !tbaa !6
  %49 = call zeroext i1 @RB_SPECIAL_CONST_P(i64 noundef %48) #28
  br i1 %49, label %50, label %51

50:                                               ; preds = %47
  store i1 false, ptr %3, align 1
  br label %58

51:                                               ; preds = %47
  %52 = load i32, ptr %5, align 4, !tbaa !10
  %53 = load i64, ptr %4, align 8, !tbaa !6
  %54 = call i32 @RB_BUILTIN_TYPE(i64 noundef %53) #32
  %55 = icmp eq i32 %52, %54
  br i1 %55, label %56, label %57

56:                                               ; preds = %51
  store i1 true, ptr %3, align 1
  br label %58

57:                                               ; preds = %51
  store i1 false, ptr %3, align 1
  br label %58

58:                                               ; preds = %57, %56, %50, %44, %38, %32, %26, %20, %14, %8
  %59 = load i1, ptr %3, align 1
  ret i1 %59
}

; Function Attrs: inlinehint nounwind sspstrong uwtable
define internal i64 @rb_obj_written(i64 noundef %0, i64 noundef %1, i64 noundef %2, ptr noundef %3, i32 noundef %4) #4 {
  %6 = alloca i64, align 8
  %7 = alloca i64, align 8
  %8 = alloca i64, align 8
  %9 = alloca ptr, align 8
  %10 = alloca i32, align 4
  store i64 %0, ptr %6, align 8, !tbaa !6
  store i64 %1, ptr %7, align 8, !tbaa !6
  store i64 %2, ptr %8, align 8, !tbaa !6
  store ptr %3, ptr %9, align 8, !tbaa !56
  store i32 %4, ptr %10, align 4, !tbaa !10
  %11 = load i64, ptr %8, align 8, !tbaa !6
  %12 = call zeroext i1 @RB_SPECIAL_CONST_P(i64 noundef %11) #28
  br i1 %12, label %16, label %13

13:                                               ; preds = %5
  %14 = load i64, ptr %6, align 8, !tbaa !6
  %15 = load i64, ptr %8, align 8, !tbaa !6
  call void @rb_gc_writebarrier(i64 noundef %14, i64 noundef %15)
  br label %16

16:                                               ; preds = %13, %5
  %17 = load i64, ptr %6, align 8, !tbaa !6
  ret i64 %17
}

; Function Attrs: inlinehint nounwind sspstrong willreturn memory(read) uwtable
define internal i64 @RSTRING_LEN(i64 noundef %0) #9 {
  %2 = alloca i64, align 8
  store i64 %0, ptr %2, align 8, !tbaa !6
  %3 = load i64, ptr %2, align 8, !tbaa !6
  %4 = inttoptr i64 %3 to ptr
  %5 = getelementptr inbounds nuw %struct.RString, ptr %4, i32 0, i32 1
  %6 = load i64, ptr %5, align 8, !tbaa !51
  ret i64 %6
}

; Function Attrs: inlinehint nounwind sspstrong uwtable
define internal void @Check_Type(i64 noundef %0, i32 noundef %1) #4 {
  %3 = alloca i64, align 8
  %4 = alloca i32, align 4
  store i64 %0, ptr %3, align 8, !tbaa !6
  store i32 %1, ptr %4, align 4, !tbaa !10
  %5 = load i32, ptr %4, align 4, !tbaa !10
  %6 = call i1 @llvm.is.constant.i32(i32 %5)
  br i1 %6, label %7, label %12

7:                                                ; preds = %2
  %8 = load i64, ptr %3, align 8, !tbaa !6
  %9 = load i32, ptr %4, align 4, !tbaa !10
  %10 = call zeroext i1 @rbimpl_RB_TYPE_P_fastpath(i64 noundef %8, i32 noundef %9) #32
  %11 = zext i1 %10 to i32
  br label %17

12:                                               ; preds = %2
  %13 = load i64, ptr %3, align 8, !tbaa !6
  %14 = load i32, ptr %4, align 4, !tbaa !10
  %15 = call zeroext i1 @RB_TYPE_P(i64 noundef %13, i32 noundef %14) #32
  %16 = zext i1 %15 to i32
  br label %17

17:                                               ; preds = %12, %7
  %18 = phi i32 [ %11, %7 ], [ %16, %12 ]
  %19 = icmp ne i32 %18, 0
  %20 = xor i1 %19, true
  %21 = xor i1 %20, true
  %22 = xor i1 %21, true
  %23 = zext i1 %22 to i32
  %24 = sext i32 %23 to i64
  %25 = call i64 @llvm.expect.i64(i64 %24, i64 0)
  %26 = icmp ne i64 %25, 0
  br i1 %26, label %27, label %28

27:                                               ; preds = %17
  br label %36

28:                                               ; preds = %17
  %29 = load i32, ptr %4, align 4, !tbaa !10
  %30 = icmp eq i32 %29, 12
  br i1 %30, label %31, label %35

31:                                               ; preds = %28
  %32 = load i64, ptr %3, align 8, !tbaa !6
  %33 = call zeroext i1 @rbimpl_rtypeddata_p(i64 noundef %32) #32
  br i1 %33, label %34, label %35

34:                                               ; preds = %31
  br label %36

35:                                               ; preds = %31, %28
  ret void

36:                                               ; preds = %34, %27
  %37 = load i64, ptr %3, align 8, !tbaa !6
  %38 = load i32, ptr %4, align 4, !tbaa !10
  call void @rb_unexpected_type(i64 noundef %37, i32 noundef %38) #33
  unreachable
}

; Function Attrs: inlinehint nounwind sspstrong willreturn memory(none) uwtable
define internal zeroext i1 @RB_TEST(i64 noundef %0) #6 {
  %2 = alloca i64, align 8
  store i64 %0, ptr %2, align 8, !tbaa !6
  %3 = load i64, ptr %2, align 8, !tbaa !6
  %4 = and i64 %3, -5
  %5 = icmp ne i64 %4, 0
  ret i1 %5
}

; Function Attrs: inlinehint nounwind sspstrong uwtable
define internal i64 @rb_obj_write(i64 noundef %0, ptr noundef %1, i64 noundef %2, ptr noundef %3, i32 noundef %4) #4 {
  %6 = alloca i64, align 8
  %7 = alloca ptr, align 8
  %8 = alloca i64, align 8
  %9 = alloca ptr, align 8
  %10 = alloca i32, align 4
  store i64 %0, ptr %6, align 8, !tbaa !6
  store ptr %1, ptr %7, align 8, !tbaa !15
  store i64 %2, ptr %8, align 8, !tbaa !6
  store ptr %3, ptr %9, align 8, !tbaa !56
  store i32 %4, ptr %10, align 4, !tbaa !10
  %11 = load i64, ptr %8, align 8, !tbaa !6
  %12 = load ptr, ptr %7, align 8, !tbaa !15
  store i64 %11, ptr %12, align 8, !tbaa !6
  %13 = load i64, ptr %6, align 8, !tbaa !6
  %14 = load i64, ptr %8, align 8, !tbaa !6
  %15 = load ptr, ptr %9, align 8, !tbaa !56
  %16 = load i32, ptr %10, align 4, !tbaa !10
  %17 = call i64 @rb_obj_written(i64 noundef %13, i64 noundef 36, i64 noundef %14, ptr noundef %15, i32 noundef %16)
  %18 = load i64, ptr %6, align 8, !tbaa !6
  ret i64 %18
}

; Function Attrs: nounwind sspstrong uwtable
define internal i64 @string_config(i64 noundef %0) #0 {
  %2 = alloca i64, align 8
  %3 = alloca i64, align 8
  store i64 %0, ptr %3, align 8, !tbaa !6
  %4 = load i64, ptr %3, align 8, !tbaa !6
  %5 = call zeroext i1 @RB_TEST(i64 noundef %4) #28
  br i1 %5, label %6, label %15

6:                                                ; preds = %1
  %7 = load i64, ptr %3, align 8, !tbaa !6
  call void @Check_Type(i64 noundef %7, i32 noundef 5)
  %8 = load i64, ptr %3, align 8, !tbaa !6
  %9 = call i64 @RSTRING_LEN(i64 noundef %8) #32
  %10 = icmp ne i64 %9, 0
  br i1 %10, label %11, label %14

11:                                               ; preds = %6
  %12 = load i64, ptr %3, align 8, !tbaa !6
  %13 = call i64 @rb_str_new_frozen(i64 noundef %12)
  store i64 %13, ptr %2, align 8
  br label %16

14:                                               ; preds = %6
  br label %15

15:                                               ; preds = %14, %1
  store i64 0, ptr %2, align 8
  br label %16

16:                                               ; preds = %15, %11
  %17 = load i64, ptr %2, align 8
  ret i64 %17
}

; Function Attrs: nounwind sspstrong uwtable
define internal i64 @cState_space_set(i64 noundef %0, i64 noundef %1) #0 {
  %3 = alloca i64, align 8
  %4 = alloca i64, align 8
  %5 = alloca ptr, align 8
  store i64 %0, ptr %3, align 8, !tbaa !6
  store i64 %1, ptr %4, align 8, !tbaa !6
  call void @llvm.lifetime.start.p0(i64 8, ptr %5) #27
  %6 = load i64, ptr %3, align 8, !tbaa !6
  %7 = call ptr @rb_check_typeddata(i64 noundef %6, ptr noundef @JSON_Generator_State_type)
  store ptr %7, ptr %5, align 8, !tbaa !12
  %8 = load i64, ptr %3, align 8, !tbaa !6
  %9 = load ptr, ptr %5, align 8, !tbaa !12
  %10 = getelementptr inbounds nuw %struct.JSON_Generator_StateStruct, ptr %9, i32 0, i32 1
  %11 = load i64, ptr %4, align 8, !tbaa !6
  %12 = call i64 @string_config(i64 noundef %11)
  %13 = call i64 @rb_obj_write(i64 noundef %8, ptr noundef %10, i64 noundef %12, ptr noundef @.str.80, i32 noundef 1311)
  call void @llvm.lifetime.end.p0(i64 8, ptr %5) #27
  ret i64 4
}